; Function Attrs: mustprogress nofree nounwind uwtable
define { ptr, ptr } @_ZNK4LIEF3pdb15CompilationUnit7sourcesB5cxx11Ev(ptr noundef nonnull readnone align 8 captures(none) dereferenceable(8) %0) local_unnamed_addr #5 align 2 {
  %2 = load atomic i8, ptr @_ZGVZNK4LIEF3pdb15CompilationUnit7sourcesB5cxx11EvE5emptyB5cxx11 acquire, align 8
  %3 = icmp eq i8 %2, 0
  br i1 %3, label %4, label %8, !prof !53

4:                                                ; preds = %1
  %5 = tail call i32 @__cxa_guard_acquire(ptr nonnull @_ZGVZNK4LIEF3pdb15CompilationUnit7sourcesB5cxx11EvE5emptyB5cxx11) #27
  %.not = icmp eq i32 %5, 0
  br i1 %.not, label %8, label %6

6:                                                ; preds = %4
  tail call void @llvm.memset.p0.i64(ptr noundef nonnull align 8 dereferenceable(24) @_ZZNK4LIEF3pdb15CompilationUnit7sourcesB5cxx11EvE5emptyB5cxx11, i8 0, i64 24, i1 false)
  %7 = tail call i32 @__cxa_atexit(ptr nonnull @_ZNSt6vectorINSt7__cxx1112basic_stringIcSt11char_traitsIcESaIcEEESaIS5_EED2Ev, ptr nonnull @_ZZNK4LIEF3pdb15CompilationUnit7sourcesB5cxx11EvE5emptyB5cxx11, ptr nonnull @__dso_handle) #27
  tail call void @__cxa_guard_release(ptr nonnull @_ZGVZNK4LIEF3pdb15CompilationUnit7sourcesB5cxx11EvE5emptyB5cxx11) #27
  br label %8

8:                                                ; preds = %6, %4, %1
  %9 = load ptr, ptr @_ZZNK4LIEF3pdb15CompilationUnit7sourcesB5cxx11EvE5emptyB5cxx11, align 8, !tbaa !54
  %10 = load ptr, ptr getelementptr inbounds nuw (i8, ptr @_ZZNK4LIEF3pdb15CompilationUnit7sourcesB5cxx11EvE5emptyB5cxx11, i64 8), align 8, !tbaa !54
  %.fca.0.insert.i = insertvalue { ptr, ptr } poison, ptr %9, 0
  %.fca.1.insert.i = insertvalue { ptr, ptr } %.fca.0.insert.i, ptr %10, 1
  ret { ptr, ptr } %.fca.1.insert.i
}